target datalayout = "e-m:e-p270:32:32-p271:32:32-p272:64:64-i64:64-i128:128-f80:128-n8:16:32:64-S128"
target triple = "x86_64-pc-linux-gnu"

@.str = private unnamed_addr constant [103 x i8] c"generated/home/dtcxzyw/WorkSpace/Projects/compilers/llvm-opt-benchmark/bench/hdf5/hdf5/src/H5Pencdec.c\00", align 1
@H5E_PLIST_g = external global i64, align 8
@H5E_BADVALUE_g = external global i64, align 8
@__func__.H5P__decode_double = private unnamed_addr constant [19 x i8] c"H5P__decode_double\00", align 1
@.str.4 = private unnamed_addr constant [30 x i8] c"double value can't be decoded\00", align 1

; Function Attrs: nounwind uwtable
define i32 @H5P__decode_double(ptr noundef %0, ptr noundef %1) #0 {
  %3 = alloca ptr, align 8
  %4 = alloca ptr, align 8
  %5 = alloca ptr, align 8
  %6 = alloca ptr, align 8
  %7 = alloca i32, align 4
  %8 = alloca i32, align 4
  %9 = alloca i8, align 1
  %10 = alloca i64, align 8
  %11 = alloca i64, align 8
  store ptr %0, ptr %3, align 8
  store ptr %1, ptr %4, align 8
  %12 = load ptr, ptr %4, align 8
  store ptr %12, ptr %5, align 8
  %13 = load ptr, ptr %3, align 8
  store ptr %13, ptr %6, align 8
  store i32 0, ptr %8, align 4
  store i8 0, ptr %9, align 1
  %14 = load ptr, ptr %6, align 8
  %15 = load ptr, ptr %14, align 8
  %16 = getelementptr inbounds i8, ptr %15, i32 1
  store ptr %16, ptr %14, align 8
  %17 = load i8, ptr %15, align 1
  %18 = zext i8 %17 to i32
  store i32 %18, ptr %7, align 4
  %19 = load i32, ptr %7, align 4
  %20 = zext i32 %19 to i64
  %21 = icmp ne i64 %20, 8
  br i1 %21, label %22, label %37

22:                                               ; preds = %2
  br label %23

23:                                               ; preds = %22
  br label %24

24:                                               ; preds = %23
  br label %25

25:                                               ; preds = %24
  %26 = load i64, ptr @H5E_PLIST_g, align 8
  %27 = load i64, ptr @H5E_BADVALUE_g, align 8
  %28 = call i32 (ptr, ptr, i32, i64, i64, ptr, ...) @H5E_printf_stack(ptr noundef @.str, ptr noundef @__func__.H5P__decode_double, i32 noundef 641, i64 noundef %26, i64 noundef %27, ptr noundef @.str.4)
  br label %29

29:                                               ; preds = %25
  store i8 1, ptr %9, align 1
  %30 = load i8, ptr %9, align 1
  %31 = trunc i8 %30 to i1
  %32 = zext i1 %31 to i8
  store i8 %32, ptr %9, align 1
  br label %33

33:                                               ; preds = %29
  br label %34

34:                                               ; preds = %33
  store i32 -1, ptr %8, align 4
  br label %63

35:                                               ; No predecessors!
  br label %36

36:                                               ; preds = %35
  br label %37

37:                                               ; preds = %36, %2
  br label %38

38:                                               ; preds = %37
  store i64 0, ptr %10, align 8
  %39 = load ptr, ptr %6, align 8
  %40 = load ptr, ptr %39, align 8
  %41 = getelementptr inbounds i8, ptr %40, i64 8
  store ptr %41, ptr %39, align 8
  store i64 0, ptr %11, align 8
  br label %42

42:                                               ; preds = %54, %38
  %43 = load i64, ptr %11, align 8
  %44 = icmp ult i64 %43, 8
  br i1 %44, label %45, label %57

45:                                               ; preds = %42
  %46 = load i64, ptr %10, align 8
  %47 = shl i64 %46, 8
  %48 = load ptr, ptr %6, align 8
  %49 = load ptr, ptr %48, align 8
  %50 = getelementptr inbounds i8, ptr %49, i32 -1
  store ptr %50, ptr %48, align 8
  %51 = load i8, ptr %50, align 1
  %52 = zext i8 %51 to i64
  %53 = or i64 %47, %52
  store i64 %53, ptr %10, align 8
  br label %54

54:                                               ; preds = %45
  %55 = load i64, ptr %11, align 8
  %56 = add i64 %55, 1
  store i64 %56, ptr %11, align 8
  br label %42

57:                                               ; preds = %42
  %58 = load ptr, ptr %5, align 8
  call void @llvm.memcpy.p0.p0.i64(ptr align 8 %58, ptr align 8 %10, i64 8, i1 false)
  %59 = load ptr, ptr %6, align 8
  %60 = load ptr, ptr %59, align 8
  %61 = getelementptr inbounds i8, ptr %60, i64 8
  store ptr %61, ptr %59, align 8
  br label %62

62:                                               ; preds = %57
  br label %63

63:                                               ; preds = %62, %34
  %64 = load i32, ptr %8, align 4
  ret i32 %64
}