; Function Attrs: nounwind uwtable
define range(i32 -1, 1) i32 @H5P__decode_double(ptr noundef captures(none) %0, ptr noundef writeonly captures(none) %1) local_unnamed_addr #2 {
  %3 = load ptr, ptr %0, align 8
  %4 = getelementptr inbounds nuw i8, ptr %3, i64 1
  store ptr %4, ptr %0, align 8
  %5 = load i8, ptr %3, align 1
  %.not = icmp eq i8 %5, 8
  br i1 %.not, label %10, label %6

6:                                                ; preds = %2
  %7 = load i64, ptr @H5E_PLIST_g, align 8
  %8 = load i64, ptr @H5E_BADVALUE_g, align 8
  %9 = tail call i32 (ptr, ptr, i32, i64, i64, ptr, ...) @H5E_printf_stack(ptr noundef nonnull @.str, ptr noundef nonnull @__func__.H5P__decode_double, i32 noundef 641, i64 noundef %7, i64 noundef %8, ptr noundef nonnull @.str.4) #8
  br label %23

10:                                               ; preds = %2
  %11 = getelementptr inbounds nuw i8, ptr %3, i64 9
  br label %12

12:                                               ; preds = %10, %12
  %.015 = phi i64 [ 0, %10 ], [ %19, %12 ]
  %.01214 = phi i64 [ 0, %10 ], [ %18, %12 ]
  %13 = phi ptr [ %11, %10 ], [ %15, %12 ]
  %14 = shl i64 %.01214, 8
  %15 = getelementptr inbounds i8, ptr %13, i64 -1
  store ptr %15, ptr %0, align 8
  %16 = load i8, ptr %15, align 1
  %17 = zext i8 %16 to i64
  %18 = or disjoint i64 %14, %17
  %19 = add nuw nsw i64 %.015, 1
  %exitcond.not = icmp eq i64 %19, 8
  br i1 %exitcond.not, label %20, label %12

20:                                               ; preds = %12
  store i64 %18, ptr %1, align 8
  %21 = load ptr, ptr %0, align 8
  %22 = getelementptr inbounds nuw i8, ptr %21, i64 8
  store ptr %22, ptr %0, align 8
  br label %23

23:                                               ; preds = %20, %6
  %.013 = phi i32 [ -1, %6 ], [ 0, %20 ]
  ret i32 %.013
}